V.pagination-page-info{padding:.6em;padding-left:0;width:40em;margin:.5em;margin-left:0;font-size:12px}.pagination-page-info b{color:black;background:;padding-left:2px;padding:.1em .25em;font-size:100%}.panel-body{background-color:#FFD6CC}
p1
.